; Function Attrs: nounwind uwtable
define ptr @glfwGetJoystickUserPointer(i32 noundef %0) local_unnamed_addr #0 {
  %2 = load i32, ptr @_glfw, align 8, !tbaa !170
  %.not = icmp eq i32 %2, 0
  br i1 %.not, label %3, label %4

3:                                                ; preds = %1
  tail call void (i32, ptr, ...) @_glfwInputError(i32 noundef 65537, ptr noundef null) #12
  br label %11

4:                                                ; preds = %1
  %5 = sext i32 %0 to i64
  %6 = getelementptr inbounds %struct._GLFWjoystick, ptr getelementptr inbounds nuw (i8, ptr @_glfw, i64 1936), i64 %5
  %7 = load i32, ptr %6, align 8, !tbaa !163
  %.not3 = icmp eq i32 %7, 0
  br i1 %.not3, label %11, label %8

8:                                                ; preds = %4
  %9 = getelementptr inbounds nuw i8, ptr %6, i64 184
  %10 = load ptr, ptr %9, align 8, !tbaa !202
  br label %11

11:                                               ; preds = %4, %8, %3
  %.0 = phi ptr [ %10, %8 ], [ null, %3 ], [ null, %4 ]
  ret ptr %.0
}